; Function Attrs: noreturn nounwind sspstrong uwtable
define dso_local void @rb_exit(i32 noundef %0) local_unnamed_addr #7 {
  %2 = alloca [2 x i64], align 16
  %3 = tail call align 8 ptr @llvm.threadlocal.address.p0(ptr align 8 @ruby_current_ec)
  %4 = load ptr, ptr %3, align 8, !tbaa !7
  %5 = getelementptr inbounds nuw i8, ptr %4, i64 24
  %6 = load ptr, ptr %5, align 8, !tbaa !202
  %.not = icmp eq ptr %6, null
  br i1 %.not, label %15, label %7

7:                                                ; preds = %1
  call void @llvm.lifetime.start.p0(i64 16, ptr nonnull %2) #27
  %8 = sext i32 %0 to i64
  %9 = shl nsw i64 %8, 1
  %10 = or disjoint i64 %9, 1
  store i64 %10, ptr %2, align 16, !tbaa !43
  %11 = tail call fastcc i64 @rbimpl_str_new_cstr(ptr noundef @.str.18)
  %12 = getelementptr inbounds nuw i8, ptr %2, i64 8
  store i64 %11, ptr %12, align 8, !tbaa !43
  %13 = load i64, ptr @rb_eSystemExit, align 8, !tbaa !43
  %14 = call i64 @rb_class_new_instance(i32 noundef 2, ptr noundef nonnull %2, i64 noundef %13) #27
  call void @rb_exc_raise(i64 noundef %14) #29
  unreachable

15:                                               ; preds = %1
  tail call void @ruby_stop(i32 noundef %0) #29
  unreachable
}